target datalayout = "e-m:e-p270:32:32-p271:32:32-p272:64:64-i64:64-i128:128-f80:128-n8:16:32:64-S128"
target triple = "x86_64-pc-linux-gnu"

; Function Attrs: nounwind uwtable
define void @Cba_BlastRotateLeft(ptr noundef %0, ptr noundef %1, i32 noundef %2, ptr noundef %3, i32 noundef %4, ptr noundef %5) #0 {
  %7 = alloca ptr, align 8
  %8 = alloca ptr, align 8
  %9 = alloca i32, align 4
  %10 = alloca ptr, align 8
  %11 = alloca i32, align 4
  %12 = alloca ptr, align 8
  %13 = alloca ptr, align 8
  %14 = alloca i32, align 4
  %15 = alloca i32, align 4
  %16 = alloca ptr, align 8
  %17 = alloca i32, align 4
  store ptr %0, ptr %7, align 8
  store ptr %1, ptr %8, align 8
  store i32 %2, ptr %9, align 4
  store ptr %3, ptr %10, align 8
  store i32 %4, ptr %11, align 4
  store ptr %5, ptr %12, align 8
  %18 = load ptr, ptr %12, align 8
  %19 = load ptr, ptr %8, align 8
  %20 = load i32, ptr %9, align 4
  %21 = call ptr @Cba_VecCopy(ptr noundef %18, ptr noundef %19, i32 noundef %20)
  store ptr %21, ptr %13, align 8
  %22 = load i32, ptr %9, align 4
  %23 = sext i32 %22 to i64
  %24 = mul i64 4, %23
  %25 = call noalias ptr @malloc(i64 noundef %24) #10
  store ptr %25, ptr %16, align 8
  store i32 0, ptr %14, align 4
  br label %26

26:                                               ; preds = %85, %6
  %27 = load i32, ptr %14, align 4
  %28 = load i32, ptr %11, align 4
  %29 = icmp slt i32 %27, %28
  br i1 %29, label %30, label %92

30:                                               ; preds = %26
  store i32 0, ptr %15, align 4
  br label %31

31:                                               ; preds = %81, %30
  %32 = load i32, ptr %15, align 4
  %33 = load i32, ptr %9, align 4
  %34 = icmp slt i32 %32, %33
  br i1 %34, label %35, label %84

35:                                               ; preds = %31
  %36 = load i32, ptr %15, align 4
  %37 = load i32, ptr %14, align 4
  %38 = shl i32 1, %37
  %39 = icmp sge i32 %36, %38
  br i1 %39, label %40, label %47

40:                                               ; preds = %35
  %41 = load i32, ptr %15, align 4
  %42 = load i32, ptr %14, align 4
  %43 = shl i32 1, %42
  %44 = sub nsw i32 %41, %43
  %45 = load i32, ptr %9, align 4
  %46 = srem i32 %44, %45
  br label %58

47:                                               ; preds = %35
  %48 = load i32, ptr %9, align 4
  %49 = load i32, ptr %14, align 4
  %50 = shl i32 1, %49
  %51 = load i32, ptr %15, align 4
  %52 = sub nsw i32 %50, %51
  %53 = load i32, ptr %9, align 4
  %54 = srem i32 %52, %53
  %55 = sub nsw i32 %48, %54
  %56 = load i32, ptr %9, align 4
  %57 = srem i32 %55, %56
  br label %58

58:                                               ; preds = %47, %40
  %59 = phi i32 [ %46, %40 ], [ %57, %47 ]
  store i32 %59, ptr %17, align 4
  %60 = load ptr, ptr %7, align 8
  %61 = load ptr, ptr %10, align 8
  %62 = load i32, ptr %14, align 4
  %63 = sext i32 %62 to i64
  %64 = getelementptr inbounds i32, ptr %61, i64 %63
  %65 = load i32, ptr %64, align 4
  %66 = load ptr, ptr %13, align 8
  %67 = load i32, ptr %17, align 4
  %68 = sext i32 %67 to i64
  %69 = getelementptr inbounds i32, ptr %66, i64 %68
  %70 = load i32, ptr %69, align 4
  %71 = load ptr, ptr %13, align 8
  %72 = load i32, ptr %15, align 4
  %73 = sext i32 %72 to i64
  %74 = getelementptr inbounds i32, ptr %71, i64 %73
  %75 = load i32, ptr %74, align 4
  %76 = call i32 @Gia_ManHashMux(ptr noundef %60, i32 noundef %65, i32 noundef %70, i32 noundef %75)
  %77 = load ptr, ptr %16, align 8
  %78 = load i32, ptr %15, align 4
  %79 = sext i32 %78 to i64
  %80 = getelementptr inbounds i32, ptr %77, i64 %79
  store i32 %76, ptr %80, align 4
  br label %81

81:                                               ; preds = %58
  %82 = load i32, ptr %15, align 4
  %83 = add nsw i32 %82, 1
  store i32 %83, ptr %15, align 4
  br label %31, !llvm.loop !21

84:                                               ; preds = %31
  br label %85

85:                                               ; preds = %84
  %86 = load i32, ptr %14, align 4
  %87 = add nsw i32 %86, 1
  store i32 %87, ptr %14, align 4
  %88 = load ptr, ptr %12, align 8
  %89 = load ptr, ptr %16, align 8
  %90 = load i32, ptr %9, align 4
  %91 = call ptr @Cba_VecCopy(ptr noundef %88, ptr noundef %89, i32 noundef %90)
  store ptr %91, ptr %13, align 8
  br label %26, !llvm.loop !22

92:                                               ; preds = %26
  %93 = load ptr, ptr %16, align 8
  %94 = icmp ne ptr %93, null
  br i1 %94, label %95, label %97

95:                                               ; preds = %92
  %96 = load ptr, ptr %16, align 8
  call void @free(ptr noundef %96) #11
  store ptr null, ptr %16, align 8
  br label %98

97:                                               ; preds = %92
  br label %98

98:                                               ; preds = %97, %95
  ret void
}