; Function Attrs: nounwind uwtable
define void @Cba_BlastRotateLeft(ptr noundef %0, ptr noundef readonly captures(none) %1, i32 noundef %2, ptr noundef readonly captures(none) %3, i32 noundef %4, ptr noundef captures(none) initializes((4, 8)) %5) local_unnamed_addr #0 {
  %7 = tail call ptr @Cba_VecCopy(ptr noundef %5, ptr noundef %1, i32 noundef %2)
  %8 = sext i32 %2 to i64
  %9 = shl nsw i64 %8, 2
  %10 = tail call noalias ptr @malloc(i64 noundef %9) #19
  %11 = icmp sgt i32 %4, 0
  br i1 %11, label %.preheader.lr.ph, label %._crit_edge43

.preheader.lr.ph:                                 ; preds = %6
  %12 = icmp sgt i32 %2, 0
  br i1 %12, label %.preheader.us.preheader, label %.preheader

.preheader.us.preheader:                          ; preds = %.preheader.lr.ph
  %wide.trip.count50 = zext nneg i32 %4 to i64
  %wide.trip.count = zext nneg i32 %2 to i64
  br label %.preheader.us

.preheader.us:                                    ; preds = %.preheader.us.preheader, %._crit_edge.us
  %indvars.iv47 = phi i64 [ 0, %.preheader.us.preheader ], [ %indvars.iv.next48, %._crit_edge.us ]
  %.042.us = phi ptr [ %7, %.preheader.us.preheader ], [ %35, %._crit_edge.us ]
  %13 = trunc nuw nsw i64 %indvars.iv47 to i32
  %14 = shl nuw i32 1, %13
  %15 = getelementptr inbounds nuw i32, ptr %3, i64 %indvars.iv47
  %16 = sext i32 %14 to i64
  br label %17

17:                                               ; preds = %.preheader.us, %25
  %indvars.iv = phi i64 [ 0, %.preheader.us ], [ %indvars.iv.next, %25 ]
  %.not39.us = icmp slt i64 %indvars.iv, %16
  %18 = trunc i64 %indvars.iv to i32
  br i1 %.not39.us, label %21, label %19

19:                                               ; preds = %17
  %20 = sub i32 %18, %14
  br label %25

21:                                               ; preds = %17
  %22 = sub i32 %14, %18
  %23 = srem i32 %22, %2
  %24 = sub nsw i32 %2, %23
  br label %25

25:                                               ; preds = %21, %19
  %.pn.us = phi i32 [ %20, %19 ], [ %24, %21 ]
  %26 = srem i32 %.pn.us, %2
  %27 = load i32, ptr %15, align 4
  %28 = sext i32 %26 to i64
  %29 = getelementptr inbounds i32, ptr %.042.us, i64 %28
  %30 = load i32, ptr %29, align 4
  %31 = getelementptr inbounds nuw i32, ptr %.042.us, i64 %indvars.iv
  %32 = load i32, ptr %31, align 4
  %33 = tail call i32 @Gia_ManHashMux(ptr noundef %0, i32 noundef %27, i32 noundef %30, i32 noundef %32) #20
  %34 = getelementptr inbounds nuw i32, ptr %10, i64 %indvars.iv
  store i32 %33, ptr %34, align 4
  %indvars.iv.next = add nuw nsw i64 %indvars.iv, 1
  %exitcond46.not = icmp eq i64 %indvars.iv.next, %wide.trip.count
  br i1 %exitcond46.not, label %._crit_edge.us, label %17, !llvm.loop !21

._crit_edge.us:                                   ; preds = %25
  %indvars.iv.next48 = add nuw nsw i64 %indvars.iv47, 1
  %35 = tail call ptr @Cba_VecCopy(ptr noundef %5, ptr noundef nonnull %10, i32 noundef %2)
  %exitcond51.not = icmp eq i64 %indvars.iv.next48, %wide.trip.count50
  br i1 %exitcond51.not, label %._crit_edge43.thread, label %.preheader.us, !llvm.loop !22

.preheader:                                       ; preds = %.preheader.lr.ph, %.preheader
  %.03441 = phi i32 [ %36, %.preheader ], [ 0, %.preheader.lr.ph ]
  %36 = add nuw nsw i32 %.03441, 1
  %37 = tail call ptr @Cba_VecCopy(ptr noundef %5, ptr noundef %10, i32 noundef %2)
  %exitcond.not = icmp eq i32 %36, %4
  br i1 %exitcond.not, label %._crit_edge43, label %.preheader, !llvm.loop !22

._crit_edge43:                                    ; preds = %.preheader, %6
  %.not = icmp eq ptr %10, null
  br i1 %.not, label %38, label %._crit_edge43.thread

._crit_edge43.thread:                             ; preds = %._crit_edge.us, %._crit_edge43
  tail call void @free(ptr noundef nonnull %10) #20
  br label %38

38:                                               ; preds = %._crit_edge43, %._crit_edge43.thread
  ret void
}